Certificate:
    Data:
        Version: 1 (0x0)
        Serial Number: 1 (0x1)
        Signature Algorithm: sha1WithRSAEncryption
        Issuer: C=AU, ST=Some-State, O=Internet Widgits Pty Ltd
        Validity
            Not Before: Jun 13 02:53:11 2007 GMT
            Not After : Mar  9 02:53:11 2010 GMT
        Subject: C=In, ST=AP, L=HYD, O=cavium, OU=hydcavium, CN=localhost/emailAddress=caviu\x08\x08\x1B[3~
        Subject Public Key Info:
            Public Key Algorithm: rsaEncryption
            RSA Public Key: (1024 bit)
                Modulus (1024 bit):
                    00:c2:38:17:9d:2e:ad:2c:a8:45:02:d8:fc:58:24:
                    22:d9:aa:c8:38:1f:3d:d6:79:dc:29:08:87:ef:ec:
                    76:dd:66:f6:39:be:ab:56:09:2f:e9:75:0f:f3:d4:
                    ab:09:45:2c:d5:fe:53:5f:15:1d:1b:75:13:b7:da:
                    57:bb:f7:a9:2e:cd:7b:9b:aa:3c:94:dd:ab:e3:f4:
                    41:f8:27:c1:3e:49:6c:83:f5:e7:c7:da:38:c9:89:
                    b1:e2:ce:94:bc:7d:18:b8:21:f2:8d:49:59:83:e8:
                    2e:4f:bc:99:71:34:ef:9e:11:92:a7:5d:cb:a3:93:
                    9c:c0:5e:58:fe:40:2c:51:15
                Exponent: 65537 (0x10001)
    Signature Algorithm: sha1WithRSAEncryption
        65:aa:0f:31:60:e5:4e:6a:44:ae:d4:95:24:3a:16:7e:fc:e9:
        bd:28:3c:f2:25:e8:64:b7:9a:bb:4f:36:2f:ee:22:e5:61:32:
        94:8f:f3:1f:63:08:61:7d:5e:fa:6f:ea:39:23:64:d2:00:28:
        e4:1d:db:16:d9:22:68:a9:9b:48:07:f7:a4:10:3b:20:be:72:
        0d:aa:01:cb:45:0f:e4:da:c4:de:3b:71:a8:75:6c:0f:7c:c1:
        a8:b3:c1:78:62:20:0a:47:89:71:93:f2:57:e6:df:a9:ca:b8:
        8e:ca:71:a8:7c:92:43:f6:bd:f1:16:70:b4:55:cb:31:93:0e:
        f8:46
-----BEGIN CERTIFICATE-----
MIICMTCCAZoCAQEwDQYJKoZIhvcNAQEFBQAwRTELMAkGA1UEBhMCQVUxEzARBgNV
BAgTClNvbWUtU3RhdGUxITAfBgNVBAoTGEludGVybmV0IFdpZGdpdHMgUHR5IEx0
ZDAeFw0wNzA2MTMwMjUzMTFaFw0xMDAzMDkwMjUzMTFaMH0xCzAJBgNVBAYTAklu
MQswCQYDVQQIEwJBUDEMMAoGA1UEBxMDSFlEMQ8wDQYDVQQKEwZjYXZpdW0xEjAQ
BgNVBAsTCWh5ZGNhdml1bTESMBAGA1UEAxMJbG9jYWxob3N0MRowGAYJKoZIhvcN
AQkBFgtjYXZpdQgIG1szfjCBnzANBgkqhkiG9w0BAQEFAAOBjQAwgYkCgYEAwjgX
nS6tLKhFAtj8WCQi2arIOB891nncKQiH7+x23Wb2Ob6rVgkv6XUP89SrCUUs1f5T
XxUdG3UTt9pXu/epLs17m6o8lN2r4/RB+CfBPklsg/Xnx9o4yYmx4s6UvH0YuCHy
jUlZg+guT7yZcTTvnhGSp13Lo5OcwF5Y/kAsURUCAwEAATANBgkqhkiG9w0BAQUF
AAOBgQBlqg8xYOVOakSu1JUkOhZ+/Om9KDzyJehkt5q7TzYv7iLlYTKUj/MfYwhh
fV76b+o5I2TSACjkHdsW2SJoqZtIB/ekEDsgvnINqgHLRQ/k2sTeO3GodWwPfMGo
s8F4YiAKR4lxk/JX5t+pyriOynGofJJD9r3xFnC0Vcsxkw74Rg==
-----END CERTIFICATE-----
